; Function Attrs: nounwind uwtable
define dso_local i64 @bb_g_get_system_size(ptr noundef %0) local_unnamed_addr #0 {
  %2 = tail call i32 @xstrncmp(ptr noundef %0, ptr noundef nonnull @.str.4, i64 noundef 13) #11
  %.not = icmp eq i32 %2, 0
  %spec.select = select i1 %.not, i64 0, i64 13
  %3 = tail call i32 @pthread_mutex_lock(ptr noundef nonnull @g_context_lock) #11
  %.not17 = icmp eq i32 %3, 0
  br i1 %.not17, label %.preheader, label %6

.preheader:                                       ; preds = %1
  %4 = load i32, ptr @g_context_cnt, align 4
  %5 = icmp sgt i32 %4, 0
  br i1 %5, label %.lr.ph.preheader, label %.loopexit

.lr.ph.preheader:                                 ; preds = %.preheader
  %.pre24 = load ptr, ptr @g_context, align 8
  br label %.lr.ph

6:                                                ; preds = %1
  %7 = tail call ptr @__errno_location() #12
  store i32 %3, ptr %7, align 4
  tail call void (ptr, ...) @fatal_abort(ptr noundef nonnull @.str.1, ptr noundef nonnull @__func__.bb_g_get_system_size) #13
  unreachable

.lr.ph:                                           ; preds = %.lr.ph.preheader, %22
  %8 = phi i32 [ %4, %.lr.ph.preheader ], [ %23, %22 ]
  %9 = phi ptr [ %.pre24, %.lr.ph.preheader ], [ %24, %22 ]
  %indvars.iv = phi i64 [ 0, %.lr.ph.preheader ], [ %indvars.iv.next, %22 ]
  %10 = getelementptr inbounds nuw ptr, ptr %9, i64 %indvars.iv
  %11 = load ptr, ptr %10, align 8
  %.not18 = icmp eq ptr %11, null
  br i1 %.not18, label %22, label %12

12:                                               ; preds = %.lr.ph
  %13 = getelementptr inbounds nuw i8, ptr %11, i64 16
  %14 = load ptr, ptr %13, align 8
  %15 = getelementptr inbounds nuw i8, ptr %14, i64 %spec.select
  %16 = tail call i32 @xstrcmp(ptr noundef %15, ptr noundef %0) #11
  %.not19 = icmp eq i32 %16, 0
  br i1 %.not19, label %17, label %._crit_edge

._crit_edge:                                      ; preds = %12
  %.pre = load ptr, ptr @g_context, align 8
  %.pre25 = load i32, ptr @g_context_cnt, align 4
  br label %22

17:                                               ; preds = %12
  %18 = load ptr, ptr @ops, align 8
  %19 = getelementptr inbounds nuw %struct.slurm_bb_ops, ptr %18, i64 %indvars.iv, i32 1
  %20 = load ptr, ptr %19, align 8
  %21 = tail call i64 %20() #11
  br label %.loopexit

22:                                               ; preds = %._crit_edge, %.lr.ph
  %23 = phi i32 [ %8, %.lr.ph ], [ %.pre25, %._crit_edge ]
  %24 = phi ptr [ %9, %.lr.ph ], [ %.pre, %._crit_edge ]
  %indvars.iv.next = add nuw nsw i64 %indvars.iv, 1
  %25 = sext i32 %23 to i64
  %26 = icmp slt i64 %indvars.iv.next, %25
  br i1 %26, label %.lr.ph, label %.loopexit, !llvm.loop !16

.loopexit:                                        ; preds = %22, %.preheader, %17
  %.0 = phi i64 [ %21, %17 ], [ 0, %.preheader ], [ 0, %22 ]
  %27 = tail call i32 @pthread_mutex_unlock(ptr noundef nonnull @g_context_lock) #11
  %.not20 = icmp eq i32 %27, 0
  br i1 %.not20, label %30, label %28

28:                                               ; preds = %.loopexit
  %29 = tail call ptr @__errno_location() #12
  store i32 %27, ptr %29, align 4
  tail call void (ptr, ...) @fatal_abort(ptr noundef nonnull @.str.8, ptr noundef nonnull @__func__.bb_g_get_system_size) #13
  unreachable

30:                                               ; preds = %.loopexit
  ret i64 %.0
}